target datalayout = "e-m:e-p270:32:32-p271:32:32-p272:64:64-i64:64-i128:128-f80:128-n8:16:32:64-S128"
target triple = "x86_64-pc-linux-gnu"

%struct._longobject = type { %struct._object, %struct._PyLongValue }
%struct._object = type { %union.anon, ptr }
%union.anon = type { i64 }
%struct._PyLongValue = type { i64, [1 x i32] }

@_Py_TrueStruct = external global %struct._longobject, align 8
@.str = private unnamed_addr constant [14 x i8] c"WITH_PYMALLOC\00", align 1
@.str.1 = private unnamed_addr constant [14 x i8] c"WITH_MIMALLOC\00", align 1

; Function Attrs: nounwind uwtable
define hidden i32 @_PyTestCapi_Init_Mem(ptr noundef %0) #0 {
  %2 = alloca i32, align 4
  %3 = alloca ptr, align 8
  %4 = alloca ptr, align 8
  %5 = alloca i32, align 4
  store ptr %0, ptr %3, align 8, !tbaa !3
  %6 = load ptr, ptr %3, align 8, !tbaa !3
  %7 = call i32 @PyModule_AddFunctions(ptr noundef %6, ptr noundef @test_methods)
  %8 = icmp slt i32 %7, 0
  br i1 %8, label %9, label %10

9:                                                ; preds = %1
  store i32 -1, ptr %2, align 4
  br label %24

10:                                               ; preds = %1
  call void @llvm.lifetime.start.p0(i64 8, ptr %4) #6
  store ptr @_Py_TrueStruct, ptr %4, align 8, !tbaa !3
  %11 = load ptr, ptr %3, align 8, !tbaa !3
  %12 = load ptr, ptr %4, align 8, !tbaa !3
  %13 = call i32 @PyModule_AddObjectRef(ptr noundef %11, ptr noundef @.str, ptr noundef %12)
  %14 = icmp slt i32 %13, 0
  br i1 %14, label %15, label %16

15:                                               ; preds = %10
  store i32 -1, ptr %2, align 4
  store i32 1, ptr %5, align 4
  br label %23

16:                                               ; preds = %10
  store ptr @_Py_TrueStruct, ptr %4, align 8, !tbaa !3
  %17 = load ptr, ptr %3, align 8, !tbaa !3
  %18 = load ptr, ptr %4, align 8, !tbaa !3
  %19 = call i32 @PyModule_AddObjectRef(ptr noundef %17, ptr noundef @.str.1, ptr noundef %18)
  %20 = icmp slt i32 %19, 0
  br i1 %20, label %21, label %22

21:                                               ; preds = %16
  store i32 -1, ptr %2, align 4
  store i32 1, ptr %5, align 4
  br label %23

22:                                               ; preds = %16
  store i32 0, ptr %2, align 4
  store i32 1, ptr %5, align 4
  br label %23

23:                                               ; preds = %22, %21, %15
  call void @llvm.lifetime.end.p0(i64 8, ptr %4) #6
  br label %24

24:                                               ; preds = %23, %9
  %25 = load i32, ptr %2, align 4
  ret i32 %25
}