; Function Attrs: nounwind uwtable
define hidden range(i32 -1, 1) i32 @_PyTestCapi_Init_Mem(ptr noundef %0) local_unnamed_addr #0 {
  %2 = tail call i32 @PyModule_AddFunctions(ptr noundef %0, ptr noundef nonnull @test_methods) #4
  %3 = icmp slt i32 %2, 0
  br i1 %3, label %9, label %4

4:                                                ; preds = %1
  %5 = tail call i32 @PyModule_AddObjectRef(ptr noundef %0, ptr noundef nonnull @.str, ptr noundef nonnull @_Py_TrueStruct) #4
  %6 = icmp slt i32 %5, 0
  br i1 %6, label %9, label %7

7:                                                ; preds = %4
  %8 = tail call i32 @PyModule_AddObjectRef(ptr noundef %0, ptr noundef nonnull @.str.1, ptr noundef nonnull @_Py_TrueStruct) #4
  %.lobit = ashr i32 %8, 31
  br label %9

9:                                                ; preds = %4, %7, %1
  %.0 = phi i32 [ -1, %1 ], [ -1, %4 ], [ %.lobit, %7 ]
  ret i32 %.0
}